target datalayout = "e-m:e-p270:32:32-p271:32:32-p272:64:64-i64:64-i128:128-f80:128-n8:16:32:64-S128"
target triple = "x86_64-pc-linux-gnu"

%struct.tok_state = type { ptr, ptr, ptr, i32, ptr, ptr, ptr, ptr, i32, ptr, i32, i32, [100 x i32], i32, i32, ptr, ptr, i32, i32, i32, i32, i32, [200 x i8], [200 x i32], [200 x i32], ptr, [100 x i32], i32, i32, ptr, i32, ptr, ptr, ptr, ptr, ptr, ptr, ptr, ptr, i32, i32, ptr, i32, [150 x %struct._tokenizer_mode], i32, i32, i32, i32 }
%struct._tokenizer_mode = type { i32, i32, i32, i8, i32, i32, ptr, ptr, i32, i64, i64, i64, i64, ptr, i32, i32 }

; Function Attrs: nounwind uwtable
define hidden ptr @_PyTokenizer_FromFile(ptr noundef %0, ptr noundef %1, ptr noundef %2, ptr noundef %3) #0 {
  %5 = alloca ptr, align 8
  %6 = alloca ptr, align 8
  %7 = alloca ptr, align 8
  %8 = alloca ptr, align 8
  %9 = alloca ptr, align 8
  %10 = alloca ptr, align 8
  %11 = alloca i32, align 4
  store ptr %0, ptr %6, align 8, !tbaa !4
  store ptr %1, ptr %7, align 8, !tbaa !9
  store ptr %2, ptr %8, align 8, !tbaa !9
  store ptr %3, ptr %9, align 8, !tbaa !9
  call void @llvm.lifetime.start.p0(i64 8, ptr %10) #9
  %12 = call ptr @_PyTokenizer_tok_new()
  store ptr %12, ptr %10, align 8, !tbaa !11
  %13 = load ptr, ptr %10, align 8, !tbaa !11
  %14 = icmp eq ptr %13, null
  br i1 %14, label %15, label %16

15:                                               ; preds = %4
  store ptr null, ptr %5, align 8
  store i32 1, ptr %11, align 4
  br label %79

16:                                               ; preds = %4
  %17 = call ptr @PyMem_Malloc(i64 noundef 8192)
  %18 = load ptr, ptr %10, align 8, !tbaa !11
  %19 = getelementptr inbounds nuw %struct.tok_state, ptr %18, i32 0, i32 0
  store ptr %17, ptr %19, align 8, !tbaa !13
  %20 = icmp eq ptr %17, null
  br i1 %20, label %21, label %23

21:                                               ; preds = %16
  %22 = load ptr, ptr %10, align 8, !tbaa !11
  call void @_PyTokenizer_Free(ptr noundef %22)
  store ptr null, ptr %5, align 8
  store i32 1, ptr %11, align 4
  br label %79

23:                                               ; preds = %16
  %24 = load ptr, ptr %10, align 8, !tbaa !11
  %25 = getelementptr inbounds nuw %struct.tok_state, ptr %24, i32 0, i32 0
  %26 = load ptr, ptr %25, align 8, !tbaa !13
  %27 = load ptr, ptr %10, align 8, !tbaa !11
  %28 = getelementptr inbounds nuw %struct.tok_state, ptr %27, i32 0, i32 2
  store ptr %26, ptr %28, align 8, !tbaa !17
  %29 = load ptr, ptr %10, align 8, !tbaa !11
  %30 = getelementptr inbounds nuw %struct.tok_state, ptr %29, i32 0, i32 1
  store ptr %26, ptr %30, align 8, !tbaa !18
  %31 = load ptr, ptr %10, align 8, !tbaa !11
  %32 = getelementptr inbounds nuw %struct.tok_state, ptr %31, i32 0, i32 0
  %33 = load ptr, ptr %32, align 8, !tbaa !13
  %34 = getelementptr i8, ptr %33, i64 8192
  %35 = load ptr, ptr %10, align 8, !tbaa !11
  %36 = getelementptr inbounds nuw %struct.tok_state, ptr %35, i32 0, i32 6
  store ptr %34, ptr %36, align 8, !tbaa !19
  %37 = load ptr, ptr %6, align 8, !tbaa !4
  %38 = load ptr, ptr %10, align 8, !tbaa !11
  %39 = getelementptr inbounds nuw %struct.tok_state, ptr %38, i32 0, i32 9
  store ptr %37, ptr %39, align 8, !tbaa !20
  %40 = load ptr, ptr %8, align 8, !tbaa !9
  %41 = load ptr, ptr %10, align 8, !tbaa !11
  %42 = getelementptr inbounds nuw %struct.tok_state, ptr %41, i32 0, i32 15
  store ptr %40, ptr %42, align 8, !tbaa !21
  %43 = load ptr, ptr %9, align 8, !tbaa !9
  %44 = load ptr, ptr %10, align 8, !tbaa !11
  %45 = getelementptr inbounds nuw %struct.tok_state, ptr %44, i32 0, i32 16
  store ptr %43, ptr %45, align 8, !tbaa !22
  %46 = load ptr, ptr %8, align 8, !tbaa !9
  %47 = icmp ne ptr %46, null
  br i1 %47, label %51, label %48

48:                                               ; preds = %23
  %49 = load ptr, ptr %9, align 8, !tbaa !9
  %50 = icmp ne ptr %49, null
  br i1 %50, label %51, label %54

51:                                               ; preds = %48, %23
  %52 = load ptr, ptr %10, align 8, !tbaa !11
  %53 = getelementptr inbounds nuw %struct.tok_state, ptr %52, i32 0, i32 41
  store ptr @tok_underflow_interactive, ptr %53, align 8, !tbaa !23
  br label %57

54:                                               ; preds = %48
  %55 = load ptr, ptr %10, align 8, !tbaa !11
  %56 = getelementptr inbounds nuw %struct.tok_state, ptr %55, i32 0, i32 41
  store ptr @tok_underflow_file, ptr %56, align 8, !tbaa !23
  br label %57

57:                                               ; preds = %54, %51
  %58 = load ptr, ptr %7, align 8, !tbaa !9
  %59 = icmp ne ptr %58, null
  br i1 %59, label %60, label %77

60:                                               ; preds = %57
  %61 = load ptr, ptr %7, align 8, !tbaa !9
  %62 = load ptr, ptr %7, align 8, !tbaa !9
  %63 = call i64 @strlen(ptr noundef %62) #10
  %64 = load ptr, ptr %10, align 8, !tbaa !11
  %65 = call ptr @_PyTokenizer_new_string(ptr noundef %61, i64 noundef %63, ptr noundef %64)
  %66 = load ptr, ptr %10, align 8, !tbaa !11
  %67 = getelementptr inbounds nuw %struct.tok_state, ptr %66, i32 0, i32 29
  store ptr %65, ptr %67, align 8, !tbaa !24
  %68 = load ptr, ptr %10, align 8, !tbaa !11
  %69 = getelementptr inbounds nuw %struct.tok_state, ptr %68, i32 0, i32 29
  %70 = load ptr, ptr %69, align 8, !tbaa !24
  %71 = icmp ne ptr %70, null
  br i1 %71, label %74, label %72

72:                                               ; preds = %60
  %73 = load ptr, ptr %10, align 8, !tbaa !11
  call void @_PyTokenizer_Free(ptr noundef %73)
  store ptr null, ptr %5, align 8
  store i32 1, ptr %11, align 4
  br label %79

74:                                               ; preds = %60
  %75 = load ptr, ptr %10, align 8, !tbaa !11
  %76 = getelementptr inbounds nuw %struct.tok_state, ptr %75, i32 0, i32 27
  store i32 2, ptr %76, align 8, !tbaa !25
  br label %77

77:                                               ; preds = %74, %57
  %78 = load ptr, ptr %10, align 8, !tbaa !11
  store ptr %78, ptr %5, align 8
  store i32 1, ptr %11, align 4
  br label %79

79:                                               ; preds = %77, %72, %21, %15
  call void @llvm.lifetime.end.p0(i64 8, ptr %10) #9
  %80 = load ptr, ptr %5, align 8
  ret ptr %80
}