; Function Attrs: nounwind uwtable
define hidden ptr @_PyTokenizer_FromFile(ptr noundef %0, ptr noundef %1, ptr noundef %2, ptr noundef %3) local_unnamed_addr #0 {
  %5 = tail call ptr @_PyTokenizer_tok_new() #11
  %6 = icmp eq ptr %5, null
  br i1 %6, label %29, label %7

7:                                                ; preds = %4
  %8 = tail call ptr @PyMem_Malloc(i64 noundef 8192) #11
  store ptr %8, ptr %5, align 8, !tbaa !4
  %9 = icmp eq ptr %8, null
  br i1 %9, label %10, label %11

10:                                               ; preds = %7
  tail call void @_PyTokenizer_Free(ptr noundef nonnull %5) #11
  br label %29

11:                                               ; preds = %7
  %12 = getelementptr inbounds nuw i8, ptr %5, i64 16
  store ptr %8, ptr %12, align 8, !tbaa !13
  %13 = getelementptr inbounds nuw i8, ptr %5, i64 8
  store ptr %8, ptr %13, align 8, !tbaa !14
  %14 = getelementptr i8, ptr %8, i64 8192
  %15 = getelementptr inbounds nuw i8, ptr %5, i64 48
  store ptr %14, ptr %15, align 8, !tbaa !15
  %16 = getelementptr inbounds nuw i8, ptr %5, i64 72
  store ptr %0, ptr %16, align 8, !tbaa !16
  %17 = getelementptr inbounds nuw i8, ptr %5, i64 496
  store ptr %2, ptr %17, align 8, !tbaa !17
  %18 = getelementptr inbounds nuw i8, ptr %5, i64 504
  store ptr %3, ptr %18, align 8, !tbaa !18
  %19 = icmp ne ptr %2, null
  %20 = icmp ne ptr %3, null
  %or.cond = or i1 %19, %20
  %spec.select = select i1 %or.cond, ptr @tok_underflow_interactive, ptr @tok_underflow_file
  %21 = getelementptr inbounds nuw i8, ptr %5, i64 2840
  store ptr %spec.select, ptr %21, align 8, !tbaa !19
  %.not = icmp eq ptr %1, null
  br i1 %.not, label %29, label %22

22:                                               ; preds = %11
  %23 = tail call i64 @strlen(ptr noundef nonnull dereferenceable(1) %1) #12
  %24 = tail call ptr @_PyTokenizer_new_string(ptr noundef nonnull %1, i64 noundef %23, ptr noundef nonnull %5) #11
  %25 = getelementptr inbounds nuw i8, ptr %5, i64 2752
  store ptr %24, ptr %25, align 8, !tbaa !20
  %.not32 = icmp eq ptr %24, null
  br i1 %.not32, label %26, label %27

26:                                               ; preds = %22
  tail call void @_PyTokenizer_Free(ptr noundef nonnull %5) #11
  br label %29

27:                                               ; preds = %22
  %28 = getelementptr inbounds nuw i8, ptr %5, i64 2744
  store i32 2, ptr %28, align 8, !tbaa !21
  br label %29

29:                                               ; preds = %11, %27, %4, %26, %10
  %.0 = phi ptr [ null, %10 ], [ null, %26 ], [ null, %4 ], [ %5, %27 ], [ %5, %11 ]
  ret ptr %.0
}